target datalayout = "e-m:e-p270:32:32-p271:32:32-p272:64:64-i64:64-i128:128-f80:128-n8:16:32:64-S128"
target triple = "x86_64-pc-linux-gnu"

%"class.icu_77::ReplaceableGlue" = type { %"class.icu_77::Replaceable", ptr, ptr }
%"class.icu_77::Replaceable" = type { %"class.icu_77::UObject" }
%"class.icu_77::UObject" = type { ptr }
%struct.UReplaceableCallbacks = type { ptr, ptr, ptr, ptr, ptr, ptr }

; Function Attrs: mustprogress uwtable
define void @_ZNK6icu_7715ReplaceableGlue14extractBetweenEiiRNS_13UnicodeStringE(ptr noundef nonnull align 8 dereferenceable(24) %0, i32 noundef %1, i32 noundef %2, ptr noundef nonnull align 8 dereferenceable(64) %3) unnamed_addr #1 align 2 {
  %5 = alloca ptr, align 8
  %6 = alloca i32, align 4
  %7 = alloca i32, align 4
  %8 = alloca ptr, align 8
  store ptr %0, ptr %5, align 8, !tbaa !3
  store i32 %1, ptr %6, align 4, !tbaa !23
  store i32 %2, ptr %7, align 4, !tbaa !23
  store ptr %3, ptr %8, align 8, !tbaa !27
  %9 = load ptr, ptr %5, align 8
  %10 = getelementptr inbounds nuw %"class.icu_77::ReplaceableGlue", ptr %9, i32 0, i32 2
  %11 = load ptr, ptr %10, align 8, !tbaa !18
  %12 = getelementptr inbounds nuw %struct.UReplaceableCallbacks, ptr %11, i32 0, i32 4
  %13 = load ptr, ptr %12, align 8, !tbaa !31
  %14 = getelementptr inbounds nuw %"class.icu_77::ReplaceableGlue", ptr %9, i32 0, i32 1
  %15 = load ptr, ptr %14, align 8, !tbaa !14
  %16 = load i32, ptr %6, align 4, !tbaa !23
  %17 = load i32, ptr %7, align 4, !tbaa !23
  %18 = load ptr, ptr %8, align 8, !tbaa !27
  %19 = load i32, ptr %7, align 4, !tbaa !23
  %20 = load i32, ptr %6, align 4, !tbaa !23
  %21 = sub nsw i32 %19, %20
  %22 = call noundef ptr @_ZN6icu_7713UnicodeString9getBufferEi(ptr noundef nonnull align 8 dereferenceable(64) %18, i32 noundef %21)
  call void %13(ptr noundef %15, i32 noundef %16, i32 noundef %17, ptr noundef %22)
  %23 = load ptr, ptr %8, align 8, !tbaa !27
  %24 = load i32, ptr %7, align 4, !tbaa !23
  %25 = load i32, ptr %6, align 4, !tbaa !23
  %26 = sub nsw i32 %24, %25
  call void @_ZN6icu_7713UnicodeString13releaseBufferEi(ptr noundef nonnull align 8 dereferenceable(64) %23, i32 noundef %26)
  ret void
}